target datalayout = "e-m:e-p270:32:32-p271:32:32-p272:64:64-i64:64-i128:128-f80:128-n8:16:32:64-S128"
target triple = "x86_64-pc-linux-gnu"

@.str.118 = private unnamed_addr constant [38 x i8] c"GLFW: Failed to find selected monitor\00", align 1

; Function Attrs: nounwind uwtable
define i32 @GetMonitorPhysicalWidth(i32 noundef %0) #0 {
  %2 = alloca i32, align 4
  %3 = alloca i32, align 4
  %4 = alloca i32, align 4
  %5 = alloca ptr, align 8
  store i32 %0, ptr %2, align 4
  call void @llvm.lifetime.start.p0(i64 4, ptr %3) #16
  store i32 0, ptr %3, align 4
  call void @llvm.lifetime.start.p0(i64 4, ptr %4) #16
  store i32 0, ptr %4, align 4
  call void @llvm.lifetime.start.p0(i64 8, ptr %5) #16
  %6 = call ptr @glfwGetMonitors(ptr noundef %4)
  store ptr %6, ptr %5, align 8
  %7 = load i32, ptr %2, align 4
  %8 = icmp sge i32 %7, 0
  br i1 %8, label %9, label %19

9:                                                ; preds = %1
  %10 = load i32, ptr %2, align 4
  %11 = load i32, ptr %4, align 4
  %12 = icmp slt i32 %10, %11
  br i1 %12, label %13, label %19

13:                                               ; preds = %9
  %14 = load ptr, ptr %5, align 8
  %15 = load i32, ptr %2, align 4
  %16 = sext i32 %15 to i64
  %17 = getelementptr inbounds ptr, ptr %14, i64 %16
  %18 = load ptr, ptr %17, align 8
  call void @glfwGetMonitorPhysicalSize(ptr noundef %18, ptr noundef %3, ptr noundef null)
  br label %20

19:                                               ; preds = %9, %1
  call void (i32, ptr, ...) @TraceLog(i32 noundef 4, ptr noundef @.str.118)
  br label %20

20:                                               ; preds = %19, %13
  %21 = load i32, ptr %3, align 4
  call void @llvm.lifetime.end.p0(i64 8, ptr %5) #16
  call void @llvm.lifetime.end.p0(i64 4, ptr %4) #16
  call void @llvm.lifetime.end.p0(i64 4, ptr %3) #16
  ret i32 %21
}