; Function Attrs: nounwind uwtable
define i32 @GetMonitorPhysicalWidth(i32 noundef %0) local_unnamed_addr #0 {
  %2 = alloca i32, align 4
  %3 = alloca i32, align 4
  call void @llvm.lifetime.start.p0(i64 4, ptr nonnull %2) #56
  store i32 0, ptr %2, align 4
  call void @llvm.lifetime.start.p0(i64 4, ptr nonnull %3) #56
  store i32 0, ptr %3, align 4
  %4 = call ptr @glfwGetMonitors(ptr noundef nonnull %3) #56
  %5 = icmp sgt i32 %0, -1
  %6 = load i32, ptr %3, align 4
  %7 = icmp slt i32 %0, %6
  %or.cond = select i1 %5, i1 %7, i1 false
  br i1 %or.cond, label %8, label %12

8:                                                ; preds = %1
  %9 = zext nneg i32 %0 to i64
  %10 = getelementptr inbounds nuw ptr, ptr %4, i64 %9
  %11 = load ptr, ptr %10, align 8
  call void @glfwGetMonitorPhysicalSize(ptr noundef %11, ptr noundef nonnull %2, ptr noundef null) #56
  %.pre = load i32, ptr %2, align 4
  br label %13

12:                                               ; preds = %1
  call void (i32, ptr, ...) @TraceLog(i32 noundef 4, ptr noundef nonnull @.str.118) #56
  br label %13

13:                                               ; preds = %12, %8
  %14 = phi i32 [ 0, %12 ], [ %.pre, %8 ]
  call void @llvm.lifetime.end.p0(i64 4, ptr nonnull %3) #56
  call void @llvm.lifetime.end.p0(i64 4, ptr nonnull %2) #56
  ret i32 %14
}